; Function Attrs: mustprogress nounwind uwtable
define void @_ZN8facebook5velox13LocalReadFileC2Ei(ptr noundef nonnull align 8 dereferenceable(64) %this, i32 noundef %fd) unnamed_addr #6 align 2 {
entry:
  %bytesRead_.i = getelementptr inbounds i8, ptr %this, i64 8
  store i64 0, ptr %bytesRead_.i, align 8
  store ptr getelementptr inbounds ({ [17 x ptr] }, ptr @_ZTVN8facebook5velox13LocalReadFileE, i64 0, i32 0, i64 2), ptr %this, align 8
  %path_ = getelementptr inbounds i8, ptr %this, i64 16
  tail call void @_ZNSt7__cxx1112basic_stringIcSt11char_traitsIcESaIcEEC1Ev(ptr noundef nonnull align 8 dereferenceable(32) %path_) #11
  %fd_ = getelementptr inbounds i8, ptr %this, i64 48
  store i32 %fd, ptr %fd_, align 8
  ret void
}